; Function Attrs: nounwind sspstrong uwtable
define internal range(i64 1, -7) i64 @gzfile_read_raw_partial(i64 noundef %0) #0 {
  %2 = inttoptr i64 %0 to ptr
  %3 = getelementptr inbounds nuw i8, ptr %2, i64 8
  %4 = getelementptr inbounds nuw i8, ptr %2, i64 16
  %5 = load i64, ptr %4, align 8, !tbaa !149
  %6 = icmp eq i64 %5, 4
  %7 = select i1 %6, i32 1, i32 2
  %8 = load i64, ptr %2, align 8, !tbaa !255
  %9 = load i64, ptr @id_readpartial, align 8, !tbaa !6
  %10 = tail call i64 @rb_funcallv(i64 noundef %8, i64 noundef %9, i32 noundef %7, ptr noundef nonnull %3) #18
  %11 = icmp eq i64 %10, 0
  %12 = and i64 %10, 7
  %13 = icmp ne i64 %12, 0
  %14 = or i1 %11, %13
  br i1 %14, label %rbimpl_RB_TYPE_P_fastpath.exit.thread.i, label %rbimpl_RB_TYPE_P_fastpath.exit.i, !prof !157

rbimpl_RB_TYPE_P_fastpath.exit.i:                 ; preds = %1
  %15 = inttoptr i64 %10 to ptr
  %16 = load i64, ptr %15, align 8, !tbaa !16
  %17 = and i64 %16, 31
  %18 = icmp eq i64 %17, 5
  br i1 %18, label %Check_Type.exit, label %rbimpl_RB_TYPE_P_fastpath.exit.thread.i, !prof !158

rbimpl_RB_TYPE_P_fastpath.exit.thread.i:          ; preds = %rbimpl_RB_TYPE_P_fastpath.exit.i, %1
  tail call void @rb_unexpected_type(i64 noundef %10, i32 noundef 5) #21
  unreachable

Check_Type.exit:                                  ; preds = %rbimpl_RB_TYPE_P_fastpath.exit.i
  ret i64 %10
}